; Function Attrs: mustprogress uwtable
define void @_ZN7xgboost6common12MmapResourceD0Ev(ptr noundef nonnull align 8 dereferenceable(64) %0) unnamed_addr #3 align 2 personality ptr @__gxx_personality_v0 {
  invoke void @_ZN7xgboost6common12MmapResourceD1Ev(ptr noundef nonnull align 8 dereferenceable(64) %0)
          to label %2 unwind label %3

2:                                                ; preds = %1
  tail call void @_ZdlPvm(ptr noundef nonnull %0, i64 noundef 64) #38
  ret void

3:                                                ; preds = %1
  %4 = landingpad { ptr, i32 }
          cleanup
  tail call void @_ZdlPvm(ptr noundef nonnull %0, i64 noundef 64) #38
  resume { ptr, i32 } %4
}